target datalayout = "e-m:e-p270:32:32-p271:32:32-p272:64:64-i64:64-i128:128-f80:128-n8:16:32:64-S128"
target triple = "x86_64-unknown-linux-gnu"

%"class.ue2::AsciiComponentClass" = type { %"class.ue2::ComponentClass.base", i32, %"class.ue2::CharReach" }
%"class.ue2::ComponentClass.base" = type <{ %"class.ue2::Component", i8, %"struct.ue2::ParseMode", i8, i32, i8 }>
%"class.ue2::Component" = type { ptr, i32, i32 }
%"struct.ue2::ParseMode" = type { i8, i8, i8, i8, i8, i8 }
%"class.ue2::CharReach" = type { %"class.ue2::bitfield" }
%"class.ue2::bitfield" = type { %"struct.std::array" }
%"struct.std::array" = type { [4 x i64] }
%"class.ue2::ComponentClass" = type <{ %"class.ue2::Component", i8, %"struct.ue2::ParseMode", i8, i32, i8, [3 x i8] }>

; Function Attrs: mustprogress nounwind uwtable
define linkonce_odr dso_local noundef ptr @_ZNSt14__array_traitsIyLm4EE6_S_ptrERA4_Ky(ptr noundef nonnull align 8 dereferenceable(32) %__t) #5 comdat align 2 {
entry:
  %__t.addr = alloca ptr, align 8
  store ptr %__t, ptr %__t.addr, align 8
  %0 = load ptr, ptr %__t.addr, align 8
  %arraydecay = getelementptr inbounds [4 x i64], ptr %0, i64 0, i64 0
  ret ptr %arraydecay
}

; Function Attrs: mustprogress nounwind uwtable
define linkonce_odr dso_local noundef nonnull align 8 dereferenceable(8) ptr @_ZNSt5arrayIyLm4EE4backEv(ptr noundef nonnull align 8 dereferenceable(32) %this) #5 comdat align 2 {
entry:
  %this.addr = alloca ptr, align 8
  store ptr %this, ptr %this.addr, align 8
  %this1 = load ptr, ptr %this.addr, align 8
  %call = call noundef ptr @_ZNSt5arrayIyLm4EE3endEv(ptr noundef nonnull align 8 dereferenceable(32) %this1) #16
  %add.ptr = getelementptr inbounds i64, ptr %call, i64 -1
  ret ptr %add.ptr
}

; Function Attrs: mustprogress nounwind willreturn memory(none) uwtable
define linkonce_odr dso_local noundef ptr @_ZNSt5arrayIyLm4EE4dataEv(ptr noundef nonnull align 8 dereferenceable(32) %this) #8 comdat align 2 {
entry:
  %this.addr = alloca ptr, align 8
  store ptr %this, ptr %this.addr, align 8
  %this1 = load ptr, ptr %this.addr, align 8
  %_M_elems = getelementptr inbounds %"struct.std::array", ptr %this1, i32 0, i32 0
  %call = call noundef ptr @_ZNSt14__array_traitsIyLm4EE6_S_ptrERA4_Ky(ptr noundef nonnull align 8 dereferenceable(32) %_M_elems) #12
  ret ptr %call
}

; Function Attrs: mustprogress nounwind uwtable
define linkonce_odr dso_local noundef nonnull align 8 dereferenceable(8) ptr @_ZNSt14__array_traitsIyLm4EE6_S_refERA4_Kym(ptr noundef nonnull align 8 dereferenceable(32) %__t, i64 noundef %__n) #5 comdat align 2 {
entry:
  %__t.addr = alloca ptr, align 8
  %__n.addr = alloca i64, align 8
  store ptr %__t, ptr %__t.addr, align 8
  store i64 %__n, ptr %__n.addr, align 8
  %0 = load ptr, ptr %__t.addr, align 8
  %1 = load i64, ptr %__n.addr, align 8
  %arrayidx = getelementptr inbounds [4 x i64], ptr %0, i64 0, i64 %1
  ret ptr %arrayidx
}

; Function Attrs: mustprogress nounwind uwtable
define linkonce_odr hidden void @_ZN3ue28bitfieldILm256EE13clear_trailerEv(ptr noundef nonnull align 8 dereferenceable(32) %this) #5 comdat align 2 {
entry:
  %this.addr = alloca ptr, align 8
  %final_bits = alloca i64, align 8
  store ptr %this, ptr %this.addr, align 8
  %this1 = load ptr, ptr %this.addr, align 8
  store i64 0, ptr %final_bits, align 8
  %0 = load i64, ptr %final_bits, align 8
  %tobool = icmp ne i64 %0, 0
  br i1 %tobool, label %if.then, label %if.end

if.then:                                          ; preds = %entry
  %1 = load i64, ptr %final_bits, align 8
  %shl = shl i64 1, %1
  %sub = sub i64 %shl, 1
  %bits = getelementptr inbounds %"class.ue2::bitfield", ptr %this1, i32 0, i32 0
  %call = call noundef nonnull align 8 dereferenceable(8) ptr @_ZNSt5arrayIyLm4EE4backEv(ptr noundef nonnull align 8 dereferenceable(32) %bits) #12
  %2 = load i64, ptr %call, align 8
  %and = and i64 %2, %sub
  store i64 %and, ptr %call, align 8
  br label %if.end

if.end:                                           ; preds = %if.then, %entry
  ret void
}

; Function Attrs: mustprogress nounwind willreturn memory(none) uwtable
define linkonce_odr dso_local noundef ptr @_ZNSt5arrayIyLm4EE3endEv(ptr noundef nonnull align 8 dereferenceable(32) %this) #8 comdat align 2 {
entry:
  %this.addr = alloca ptr, align 8
  store ptr %this, ptr %this.addr, align 8
  %this1 = load ptr, ptr %this.addr, align 8
  %call = call noundef ptr @_ZNSt5arrayIyLm4EE4dataEv(ptr noundef nonnull align 8 dereferenceable(32) %this1) #16
  %add.ptr = getelementptr inbounds i64, ptr %call, i64 4
  ret ptr %add.ptr
}

; Function Attrs: mustprogress nounwind willreturn memory(none) uwtable
define linkonce_odr dso_local noundef ptr @_ZNSt5arrayIyLm4EE5beginEv(ptr noundef nonnull align 8 dereferenceable(32) %this) #8 comdat align 2 {
entry:
  %this.addr = alloca ptr, align 8
  store ptr %this, ptr %this.addr, align 8
  %this1 = load ptr, ptr %this.addr, align 8
  %call = call noundef ptr @_ZNSt5arrayIyLm4EE4dataEv(ptr noundef nonnull align 8 dereferenceable(32) %this1) #16
  ret ptr %call
}

; Function Attrs: mustprogress nounwind uwtable
define linkonce_odr dso_local noundef nonnull align 8 dereferenceable(8) ptr @_ZNSt5arrayIyLm4EEixEm(ptr noundef nonnull align 8 dereferenceable(32) %this, i64 noundef %__n) #5 comdat align 2 {
entry:
  %this.addr = alloca ptr, align 8
  %__n.addr = alloca i64, align 8
  store ptr %this, ptr %this.addr, align 8
  store i64 %__n, ptr %__n.addr, align 8
  %this1 = load ptr, ptr %this.addr, align 8
  %_M_elems = getelementptr inbounds %"struct.std::array", ptr %this1, i32 0, i32 0
  %0 = load i64, ptr %__n.addr, align 8
  %call = call noundef nonnull align 8 dereferenceable(8) ptr @_ZNSt14__array_traitsIyLm4EE6_S_refERA4_Kym(ptr noundef nonnull align 8 dereferenceable(32) %_M_elems, i64 noundef %0) #12
  ret ptr %call
}

; Function Attrs: mustprogress nounwind uwtable
define linkonce_odr hidden noundef i64 @_ZN3ue28bitfieldILm256EE7getwordEm(i64 noundef %n) #5 comdat align 2 {
entry:
  %n.addr = alloca i64, align 8
  store i64 %n, ptr %n.addr, align 8
  %0 = load i64, ptr %n.addr, align 8
  %div = udiv i64 %0, 64
  ret i64 %div
}

; Function Attrs: mustprogress nounwind uwtable
define linkonce_odr hidden noundef i64 @_ZN3ue28bitfieldILm256EE7maskbitEm(i64 noundef %n) #5 comdat align 2 {
entry:
  %n.addr = alloca i64, align 8
  store i64 %n, ptr %n.addr, align 8
  %0 = load i64, ptr %n.addr, align 8
  %rem = urem i64 %0, 64
  %shl = shl i64 1, %rem
  ret i64 %shl
}

; Function Attrs: mustprogress uwtable
define linkonce_odr hidden void @_ZN3ue28bitfieldILm256EE4flipEv(ptr noundef nonnull align 8 dereferenceable(32) %this) #0 comdat align 2 {
entry:
  %this.addr = alloca ptr, align 8
  %__range2 = alloca ptr, align 8
  %__begin0 = alloca ptr, align 8
  %__end0 = alloca ptr, align 8
  %e = alloca ptr, align 8
  store ptr %this, ptr %this.addr, align 8
  %this1 = load ptr, ptr %this.addr, align 8
  %bits = getelementptr inbounds %"class.ue2::bitfield", ptr %this1, i32 0, i32 0
  store ptr %bits, ptr %__range2, align 8
  %0 = load ptr, ptr %__range2, align 8
  %call = call noundef ptr @_ZNSt5arrayIyLm4EE5beginEv(ptr noundef nonnull align 8 dereferenceable(32) %0) #16
  store ptr %call, ptr %__begin0, align 8
  %1 = load ptr, ptr %__range2, align 8
  %call2 = call noundef ptr @_ZNSt5arrayIyLm4EE3endEv(ptr noundef nonnull align 8 dereferenceable(32) %1) #16
  store ptr %call2, ptr %__end0, align 8
  br label %for.cond

for.cond:                                         ; preds = %for.inc, %entry
  %2 = load ptr, ptr %__begin0, align 8
  %3 = load ptr, ptr %__end0, align 8
  %cmp = icmp ne ptr %2, %3
  br i1 %cmp, label %for.body, label %for.end

for.body:                                         ; preds = %for.cond
  %4 = load ptr, ptr %__begin0, align 8
  store ptr %4, ptr %e, align 8
  %5 = load ptr, ptr %e, align 8
  %6 = load i64, ptr %5, align 8
  %not = xor i64 %6, -1
  %7 = load ptr, ptr %e, align 8
  store i64 %not, ptr %7, align 8
  br label %for.inc

for.inc:                                          ; preds = %for.body
  %8 = load ptr, ptr %__begin0, align 8
  %incdec.ptr = getelementptr inbounds i64, ptr %8, i32 1
  store ptr %incdec.ptr, ptr %__begin0, align 8
  br label %for.cond

for.end:                                          ; preds = %for.cond
  call void @_ZN3ue28bitfieldILm256EE13clear_trailerEv(ptr noundef nonnull align 8 dereferenceable(32) %this1)
  ret void
}

; Function Attrs: mustprogress uwtable
define linkonce_odr hidden void @_ZN3ue28bitfieldILm256EE3setEm(ptr noundef nonnull align 8 dereferenceable(32) %this, i64 noundef %n) #0 comdat align 2 {
entry:
  %this.addr = alloca ptr, align 8
  %n.addr = alloca i64, align 8
  store ptr %this, ptr %this.addr, align 8
  store i64 %n, ptr %n.addr, align 8
  %this1 = load ptr, ptr %this.addr, align 8
  %0 = load i64, ptr %n.addr, align 8
  %call = call noundef i64 @_ZN3ue28bitfieldILm256EE7maskbitEm(i64 noundef %0)
  %bits = getelementptr inbounds %"class.ue2::bitfield", ptr %this1, i32 0, i32 0
  %1 = load i64, ptr %n.addr, align 8
  %call2 = call noundef i64 @_ZN3ue28bitfieldILm256EE7getwordEm(i64 noundef %1)
  %call3 = call noundef nonnull align 8 dereferenceable(8) ptr @_ZNSt5arrayIyLm4EEixEm(ptr noundef nonnull align 8 dereferenceable(32) %bits, i64 noundef %call2) #12
  %2 = load i64, ptr %call3, align 8
  %or = or i64 %2, %call
  store i64 %or, ptr %call3, align 8
  ret void
}

; Function Attrs: mustprogress uwtable
define linkonce_odr hidden void @_ZN3ue29CharReach4flipEv(ptr noundef nonnull align 8 dereferenceable(32) %this) #0 comdat align 2 {
entry:
  %this.addr = alloca ptr, align 8
  store ptr %this, ptr %this.addr, align 8
  %this1 = load ptr, ptr %this.addr, align 8
  %bits = getelementptr inbounds %"class.ue2::CharReach", ptr %this1, i32 0, i32 0
  call void @_ZN3ue28bitfieldILm256EE4flipEv(ptr noundef nonnull align 8 dereferenceable(32) %bits)
  ret void
}

; Function Attrs: mustprogress uwtable
define linkonce_odr hidden void @_ZN3ue29CharReach3setEh(ptr noundef nonnull align 8 dereferenceable(32) %this, i8 noundef zeroext %n) #0 comdat align 2 {
entry:
  %this.addr = alloca ptr, align 8
  %n.addr = alloca i8, align 1
  store ptr %this, ptr %this.addr, align 8
  store i8 %n, ptr %n.addr, align 1
  %this1 = load ptr, ptr %this.addr, align 8
  %bits = getelementptr inbounds %"class.ue2::CharReach", ptr %this1, i32 0, i32 0
  %0 = load i8, ptr %n.addr, align 1
  %conv = zext i8 %0 to i64
  call void @_ZN3ue28bitfieldILm256EE3setEm(ptr noundef nonnull align 8 dereferenceable(32) %bits, i64 noundef %conv)
  ret void
}

; Function Attrs: mustprogress uwtable
define hidden void @_ZN3ue219AsciiComponentClass8finalizeEv(ptr noundef nonnull align 8 dereferenceable(72) %this) unnamed_addr #0 align 2 {
entry:
  %this.addr = alloca ptr, align 8
  store ptr %this, ptr %this.addr, align 8
  %this1 = load ptr, ptr %this.addr, align 8
  %finalized = getelementptr inbounds %"class.ue2::ComponentClass", ptr %this1, i32 0, i32 5
  %0 = load i8, ptr %finalized, align 4
  %tobool = trunc i8 %0 to i1
  br i1 %tobool, label %if.then, label %if.end

if.then:                                          ; preds = %entry
  br label %return

if.end:                                           ; preds = %entry
  %in_cand_range = getelementptr inbounds %"class.ue2::ComponentClass", ptr %this1, i32 0, i32 3
  %1 = load i8, ptr %in_cand_range, align 1
  %tobool2 = trunc i8 %1 to i1
  br i1 %tobool2, label %if.then3, label %if.end5

if.then3:                                         ; preds = %if.end
  %cr = getelementptr inbounds %"class.ue2::AsciiComponentClass", ptr %this1, i32 0, i32 2
  call void @_ZN3ue29CharReach3setEh(ptr noundef nonnull align 8 dereferenceable(32) %cr, i8 noundef zeroext 45)
  %in_cand_range4 = getelementptr inbounds %"class.ue2::ComponentClass", ptr %this1, i32 0, i32 3
  store i8 0, ptr %in_cand_range4, align 1
  br label %if.end5

if.end5:                                          ; preds = %if.then3, %if.end
  %m_negate = getelementptr inbounds %"class.ue2::ComponentClass", ptr %this1, i32 0, i32 1
  %2 = load i8, ptr %m_negate, align 8
  %tobool6 = trunc i8 %2 to i1
  br i1 %tobool6, label %if.then7, label %if.end9

if.then7:                                         ; preds = %if.end5
  %cr8 = getelementptr inbounds %"class.ue2::AsciiComponentClass", ptr %this1, i32 0, i32 2
  call void @_ZN3ue29CharReach4flipEv(ptr noundef nonnull align 8 dereferenceable(32) %cr8)
  br label %if.end9

if.end9:                                          ; preds = %if.then7, %if.end5
  %finalized10 = getelementptr inbounds %"class.ue2::ComponentClass", ptr %this1, i32 0, i32 5
  store i8 1, ptr %finalized10, align 4
  br label %return

return:                                           ; preds = %if.end9, %if.then
  ret void
}