; Function Attrs: mustprogress nofree norecurse nosync nounwind memory(argmem: readwrite) uwtable
define hidden void @_ZN3ue219AsciiComponentClass8finalizeEv(ptr nocapture noundef nonnull align 8 dereferenceable(72) %this) unnamed_addr #7 align 2 {
entry:
  %finalized = getelementptr inbounds i8, ptr %this, i64 28
  %0 = load i8, ptr %finalized, align 4
  %1 = and i8 %0, 1
  %tobool.not = icmp eq i8 %1, 0
  br i1 %tobool.not, label %if.end, label %return

if.end:                                           ; preds = %entry
  %in_cand_range = getelementptr inbounds i8, ptr %this, i64 23
  %2 = load i8, ptr %in_cand_range, align 1
  %3 = and i8 %2, 1
  %tobool2.not = icmp eq i8 %3, 0
  br i1 %tobool2.not, label %if.end5, label %if.then3

if.then3:                                         ; preds = %if.end
  %cr = getelementptr inbounds i8, ptr %this, i64 40
  %4 = load i64, ptr %cr, align 8
  %or.i.i = or i64 %4, 35184372088832
  store i64 %or.i.i, ptr %cr, align 8
  store i8 0, ptr %in_cand_range, align 1
  br label %if.end5

if.end5:                                          ; preds = %if.then3, %if.end
  %m_negate = getelementptr inbounds i8, ptr %this, i64 16
  %5 = load i8, ptr %m_negate, align 8
  %6 = and i8 %5, 1
  %tobool6.not = icmp eq i8 %6, 0
  br i1 %tobool6.not, label %if.end9, label %if.then7

if.then7:                                         ; preds = %if.end5
  %cr8 = getelementptr inbounds i8, ptr %this, i64 40
  br label %for.body.i.i

for.body.i.i:                                     ; preds = %for.body.i.i, %if.then7
  %__begin0.0.idx5.i.i = phi i64 [ 0, %if.then7 ], [ %__begin0.0.add.i.i, %for.body.i.i ]
  %__begin0.0.ptr.i.i = getelementptr inbounds i8, ptr %cr8, i64 %__begin0.0.idx5.i.i
  %7 = load i64, ptr %__begin0.0.ptr.i.i, align 8
  %not.i.i = xor i64 %7, -1
  store i64 %not.i.i, ptr %__begin0.0.ptr.i.i, align 8
  %__begin0.0.add.i.i = add nuw nsw i64 %__begin0.0.idx5.i.i, 8
  %cmp.not.i.i = icmp eq i64 %__begin0.0.add.i.i, 32
  br i1 %cmp.not.i.i, label %if.end9, label %for.body.i.i

if.end9:                                          ; preds = %for.body.i.i, %if.end5
  store i8 1, ptr %finalized, align 4
  br label %return

return:                                           ; preds = %entry, %if.end9
  ret void
}